; Function Attrs: mustprogress uwtable
define void @_ZN7rocksdb9cassandra32CassandraCompactionFilterFactory22CreateCompactionFilterERKNS_16CompactionFilter7ContextE(ptr noalias nocapture writeonly sret(%"class.std::unique_ptr") align 8 %agg.result, ptr nocapture noundef nonnull readonly align 8 dereferenceable(48) %this, ptr nocapture nonnull readnone align 8 %0) unnamed_addr #3 align 2 personality ptr @__gxx_personality_v0 {
entry:
  %call = tail call noalias noundef nonnull dereferenceable(48) ptr @_Znwm(i64 noundef 48) #21
  %purge_ttl_on_expiration = getelementptr inbounds i8, ptr %this, i64 44
  %1 = load i8, ptr %purge_ttl_on_expiration, align 4
  %2 = and i8 %1, 1
  %tobool = icmp ne i8 %2, 0
  %gc_grace_period_in_seconds = getelementptr inbounds i8, ptr %this, i64 40
  %3 = load i32, ptr %gc_grace_period_in_seconds, align 8
  invoke void @_ZN7rocksdb9cassandra25CassandraCompactionFilterC1Ebi(ptr noundef nonnull align 8 dereferenceable(48) %call, i1 noundef zeroext %tobool, i32 noundef %3)
          to label %invoke.cont unwind label %lpad

invoke.cont:                                      ; preds = %entry
  store ptr %call, ptr %agg.result, align 8
  ret void

lpad:                                             ; preds = %entry
  %4 = landingpad { ptr, i32 }
          cleanup
  tail call void @_ZdlPv(ptr noundef nonnull %call) #20
  resume { ptr, i32 } %4
}